; Function Attrs: nounwind uwtable
define hidden ptr @SDL_LoadFile_REAL(ptr noundef %0, ptr noundef writeonly captures(address_is_null) %1) local_unnamed_addr #0 {
  %3 = tail call ptr @SDL_IOFromFile_REAL(ptr noundef %0, ptr noundef nonnull @.str.15)
  %.not = icmp eq ptr %3, null
  br i1 %.not, label %4, label %6

4:                                                ; preds = %2
  %.not9 = icmp eq ptr %1, null
  br i1 %.not9, label %8, label %5

5:                                                ; preds = %4
  store i64 0, ptr %1, align 8
  br label %8

6:                                                ; preds = %2
  %7 = tail call ptr @SDL_LoadFile_IO_REAL(ptr noundef nonnull %3, ptr noundef %1, i1 noundef zeroext true)
  br label %8

8:                                                ; preds = %4, %5, %6
  %.0 = phi ptr [ %7, %6 ], [ null, %5 ], [ null, %4 ]
  ret ptr %.0
}